; Function Attrs: mustprogress nofree norecurse nosync nounwind willreturn memory(read, inaccessiblemem: none) uwtable
define hidden noundef double @_ZN14G1GCPhaseTimes13get_time_secsENS_11GCParPhasesEj(ptr nocapture noundef nonnull readonly align 8 dereferenceable(872) %0, i32 noundef %1, i32 noundef %2) local_unnamed_addr #6 align 2 {
  %4 = getelementptr inbounds i8, ptr %0, i64 24
  %5 = zext i32 %1 to i64
  %6 = getelementptr inbounds [45 x ptr], ptr %4, i64 0, i64 %5
  %7 = load ptr, ptr %6, align 8
  %8 = load ptr, ptr %7, align 8
  %9 = zext i32 %2 to i64
  %10 = getelementptr inbounds double, ptr %8, i64 %9
  %11 = load double, ptr %10, align 8
  ret double %11
}